; Function Attrs: mustprogress uwtable
define internal void @"_ZZN4pkpy15__init_builtinsEPNS_2VMEEN4$_758__invokeES1_PNS_8PyObjectE"(ptr dead_on_unwind noalias writable sret(%"struct.pkpy::Str") align 8 %0, ptr noundef %1, ptr noundef %2) #4 align 2 personality ptr @__gxx_personality_v0 {
  %4 = alloca %"struct.pkpy::SStream", align 8
  call void @llvm.lifetime.start.p0(i64 24, ptr nonnull %4)
  %5 = tail call noundef double @_ZN4pkpy18_py_cast__internalIdLb0EEET_PNS_2VMEPNS_8PyObjectE(ptr noundef %1, ptr noundef %2), !noalias !82
  store i32 0, ptr %4, align 8, !noalias !82
  %6 = getelementptr inbounds i8, ptr %4, i64 4
  store i32 64, ptr %6, align 4, !noalias !82
  %7 = tail call noundef ptr @_ZN4pkpy12pool64_allocEm(i64 noundef 64) #35, !noalias !82
  %8 = getelementptr inbounds i8, ptr %4, i64 8
  store ptr %7, ptr %8, align 8, !noalias !82
  %9 = getelementptr inbounds i8, ptr %4, i64 16
  store i32 -1, ptr %9, align 8, !noalias !82
  %10 = invoke noundef nonnull align 8 dereferenceable(20) ptr @_ZN4pkpy7SStreamlsEd(ptr noundef nonnull align 8 dereferenceable(20) %4, double noundef %5)
          to label %11 unwind label %15, !noalias !82

11:                                               ; preds = %3
  invoke void @_ZN4pkpy7SStream3strEv(ptr dead_on_unwind writable sret(%"struct.pkpy::Str") align 8 %0, ptr noundef nonnull align 8 dereferenceable(20) %4)
          to label %12 unwind label %15

12:                                               ; preds = %11
  %13 = load ptr, ptr %8, align 8, !noalias !82
  %.not.i.i.i = icmp eq ptr %13, null
  br i1 %.not.i.i.i, label %"_ZZN4pkpy15__init_builtinsEPNS_2VMEENK4$_75clES1_PNS_8PyObjectE.exit", label %14

14:                                               ; preds = %12
  call void @_ZN4pkpy14pool64_deallocEPv(ptr noundef nonnull %13) #35
  br label %"_ZZN4pkpy15__init_builtinsEPNS_2VMEENK4$_75clES1_PNS_8PyObjectE.exit"

15:                                               ; preds = %11, %3
  %16 = landingpad { ptr, i32 }
          cleanup
  %17 = load ptr, ptr %8, align 8, !noalias !82
  %.not.i.i4.i = icmp eq ptr %17, null
  br i1 %.not.i.i4.i, label %_ZN4pkpy7SStreamD2Ev.exit5.i, label %18

18:                                               ; preds = %15
  call void @_ZN4pkpy14pool64_deallocEPv(ptr noundef nonnull %17) #35
  br label %_ZN4pkpy7SStreamD2Ev.exit5.i

_ZN4pkpy7SStreamD2Ev.exit5.i:                     ; preds = %18, %15
  resume { ptr, i32 } %16

"_ZZN4pkpy15__init_builtinsEPNS_2VMEENK4$_75clES1_PNS_8PyObjectE.exit": ; preds = %12, %14
  call void @llvm.lifetime.end.p0(i64 24, ptr nonnull %4)
  ret void
}